; Function Attrs: mustprogress nounwind uwtable
define void @_ZN6icu_7714MessagePatternD2Ev(ptr noundef nonnull align 8 dereferenceable(127) initializes((0, 8)) %0) unnamed_addr #0 align 2 personality ptr @__gxx_personality_v0 {
  store ptr getelementptr inbounds nuw inrange(-16, 24) (i8, ptr @_ZTVN6icu_7714MessagePatternE, i64 16), ptr %0, align 8, !tbaa !3
  %2 = getelementptr inbounds nuw i8, ptr %0, i64 80
  %3 = load ptr, ptr %2, align 8, !tbaa !22
  %4 = icmp eq ptr %3, null
  br i1 %4, label %13, label %5

5:                                                ; preds = %1
  %6 = getelementptr inbounds nuw i8, ptr %3, i64 12
  %7 = load i8, ptr %6, align 4, !tbaa !41
  %.not.i.i.i = icmp eq i8 %7, 0
  br i1 %.not.i.i.i, label %_ZN6icu_7718MessagePatternListINS_14MessagePattern4PartELi32EED2Ev.exit, label %8

8:                                                ; preds = %5
  %9 = load ptr, ptr %3, align 8, !tbaa !23
  invoke void @uprv_free_77(ptr noundef %9)
          to label %_ZN6icu_7718MessagePatternListINS_14MessagePattern4PartELi32EED2Ev.exit unwind label %10

10:                                               ; preds = %8
  %11 = landingpad { ptr, i32 }
          catch ptr null
  %12 = extractvalue { ptr, i32 } %11, 0
  tail call void @__clang_call_terminate(ptr %12) #20
  unreachable

_ZN6icu_7718MessagePatternListINS_14MessagePattern4PartELi32EED2Ev.exit: ; preds = %5, %8
  tail call void @_ZN6icu_777UMemorydlEPv(ptr noundef nonnull %3) #18
  br label %13

13:                                               ; preds = %_ZN6icu_7718MessagePatternListINS_14MessagePattern4PartELi32EED2Ev.exit, %1
  %14 = getelementptr inbounds nuw i8, ptr %0, i64 104
  %15 = load ptr, ptr %14, align 8, !tbaa !33
  %16 = icmp eq ptr %15, null
  br i1 %16, label %25, label %17

17:                                               ; preds = %13
  %18 = getelementptr inbounds nuw i8, ptr %15, i64 12
  %19 = load i8, ptr %18, align 4, !tbaa !43
  %.not.i.i.i2 = icmp eq i8 %19, 0
  br i1 %.not.i.i.i2, label %_ZN6icu_7718MessagePatternListIdLi8EED2Ev.exit, label %20

20:                                               ; preds = %17
  %21 = load ptr, ptr %15, align 8, !tbaa !34
  invoke void @uprv_free_77(ptr noundef %21)
          to label %_ZN6icu_7718MessagePatternListIdLi8EED2Ev.exit unwind label %22

22:                                               ; preds = %20
  %23 = landingpad { ptr, i32 }
          catch ptr null
  %24 = extractvalue { ptr, i32 } %23, 0
  tail call void @__clang_call_terminate(ptr %24) #20
  unreachable

_ZN6icu_7718MessagePatternListIdLi8EED2Ev.exit:   ; preds = %17, %20
  tail call void @_ZN6icu_777UMemorydlEPv(ptr noundef nonnull %15) #18
  br label %25

25:                                               ; preds = %_ZN6icu_7718MessagePatternListIdLi8EED2Ev.exit, %13
  %26 = getelementptr inbounds nuw i8, ptr %0, i64 16
  tail call void @_ZN6icu_7713UnicodeStringD1Ev(ptr noundef nonnull align 8 dereferenceable(64) %26) #18
  tail call void @_ZN6icu_777UObjectD2Ev(ptr noundef nonnull align 8 dereferenceable(8) %0) #18
  ret void
}